; Function Attrs: nounwind uwtable
define ptr @l___private_Lean_Data_Lsp_LanguageFeatures_0__Lean_Lsp_reprCompletionItemTag____x40_Lean_Data_Lsp_LanguageFeatures___hyg_1851____rarg___boxed(ptr noundef %0) #0 {
  %2 = ptrtoint ptr %0 to i64
  %3 = and i64 %2, 1
  %.not.i3 = icmp eq i64 %3, 0
  br i1 %.not.i3, label %lean_nat_le.exit.i, label %4, !prof !18

4:                                                ; preds = %1
  %.not9.i = icmp ult ptr %0, inttoptr (i64 2049 to ptr)
  br i1 %.not9.i, label %l___private_Lean_Data_Lsp_LanguageFeatures_0__Lean_Lsp_reprCompletionItemTag____x40_Lean_Data_Lsp_LanguageFeatures___hyg_1851____rarg.exit.thread, label %l___private_Lean_Data_Lsp_LanguageFeatures_0__Lean_Lsp_reprCompletionItemTag____x40_Lean_Data_Lsp_LanguageFeatures___hyg_1851____rarg.exit.thread7

l___private_Lean_Data_Lsp_LanguageFeatures_0__Lean_Lsp_reprCompletionItemTag____x40_Lean_Data_Lsp_LanguageFeatures___hyg_1851____rarg.exit.thread7: ; preds = %4
  %5 = load ptr, ptr @l___private_Lean_Data_Lsp_LanguageFeatures_0__Lean_Lsp_reprCompletionItemTag____x40_Lean_Data_Lsp_LanguageFeatures___hyg_1851____rarg___closed__6, align 8, !tbaa !4
  %6 = tail call ptr @l_Repr_addAppParen(ptr noundef %5, ptr noundef %0) #9
  br label %lean_dec.exit

l___private_Lean_Data_Lsp_LanguageFeatures_0__Lean_Lsp_reprCompletionItemTag____x40_Lean_Data_Lsp_LanguageFeatures___hyg_1851____rarg.exit.thread: ; preds = %4
  %7 = load ptr, ptr @l___private_Lean_Data_Lsp_LanguageFeatures_0__Lean_Lsp_reprCompletionItemTag____x40_Lean_Data_Lsp_LanguageFeatures___hyg_1851____rarg___closed__4, align 8, !tbaa !4
  %8 = tail call ptr @l_Repr_addAppParen(ptr noundef %7, ptr noundef %0) #9
  br label %lean_dec.exit

lean_nat_le.exit.i:                               ; preds = %1
  %9 = tail call zeroext i1 @lean_nat_big_le(ptr noundef nonnull inttoptr (i64 2049 to ptr), ptr noundef %0) #9
  %l___private_Lean_Data_Lsp_LanguageFeatures_0__Lean_Lsp_reprCompletionItemTag____x40_Lean_Data_Lsp_LanguageFeatures___hyg_1851____rarg___closed__6.val = load ptr, ptr @l___private_Lean_Data_Lsp_LanguageFeatures_0__Lean_Lsp_reprCompletionItemTag____x40_Lean_Data_Lsp_LanguageFeatures___hyg_1851____rarg___closed__6, align 8
  %l___private_Lean_Data_Lsp_LanguageFeatures_0__Lean_Lsp_reprCompletionItemTag____x40_Lean_Data_Lsp_LanguageFeatures___hyg_1851____rarg___closed__4.val = load ptr, ptr @l___private_Lean_Data_Lsp_LanguageFeatures_0__Lean_Lsp_reprCompletionItemTag____x40_Lean_Data_Lsp_LanguageFeatures___hyg_1851____rarg___closed__4, align 8
  %10 = select i1 %9, ptr %l___private_Lean_Data_Lsp_LanguageFeatures_0__Lean_Lsp_reprCompletionItemTag____x40_Lean_Data_Lsp_LanguageFeatures___hyg_1851____rarg___closed__6.val, ptr %l___private_Lean_Data_Lsp_LanguageFeatures_0__Lean_Lsp_reprCompletionItemTag____x40_Lean_Data_Lsp_LanguageFeatures___hyg_1851____rarg___closed__4.val
  %11 = tail call ptr @l_Repr_addAppParen(ptr noundef %10, ptr noundef %0) #9
  %12 = load i32, ptr %0, align 4, !tbaa !8
  %13 = icmp sgt i32 %12, 1
  br i1 %13, label %14, label %16, !prof !11

14:                                               ; preds = %lean_nat_le.exit.i
  %15 = add nsw i32 %12, -1
  store i32 %15, ptr %0, align 4, !tbaa !8
  br label %lean_dec.exit

16:                                               ; preds = %lean_nat_le.exit.i
  %.not.i = icmp eq i32 %12, 0
  br i1 %.not.i, label %lean_dec.exit, label %17

17:                                               ; preds = %16
  tail call void @lean_dec_ref_cold(ptr noundef nonnull %0) #9
  br label %lean_dec.exit

lean_dec.exit:                                    ; preds = %17, %16, %14, %l___private_Lean_Data_Lsp_LanguageFeatures_0__Lean_Lsp_reprCompletionItemTag____x40_Lean_Data_Lsp_LanguageFeatures___hyg_1851____rarg.exit.thread7, %l___private_Lean_Data_Lsp_LanguageFeatures_0__Lean_Lsp_reprCompletionItemTag____x40_Lean_Data_Lsp_LanguageFeatures___hyg_1851____rarg.exit.thread
  %18 = phi ptr [ %8, %l___private_Lean_Data_Lsp_LanguageFeatures_0__Lean_Lsp_reprCompletionItemTag____x40_Lean_Data_Lsp_LanguageFeatures___hyg_1851____rarg.exit.thread ], [ %6, %l___private_Lean_Data_Lsp_LanguageFeatures_0__Lean_Lsp_reprCompletionItemTag____x40_Lean_Data_Lsp_LanguageFeatures___hyg_1851____rarg.exit.thread7 ], [ %11, %14 ], [ %11, %16 ], [ %11, %17 ]
  ret ptr %18
}